target datalayout = "e-m:e-p270:32:32-p271:32:32-p272:64:64-i64:64-i128:128-f80:128-n8:16:32:64-S128"
target triple = "x86_64-pc-linux-gnu"

@.str.71 = private unnamed_addr constant [63 x i8] c"The option \22%s\22 is defunct, please remove it from cgroup.conf.\00", align 1

; Function Attrs: nounwind uwtable
define internal i32 @_defunct_option(ptr noundef %0, i32 noundef %1, ptr noundef %2, ptr noundef %3, ptr noundef %4, ptr noundef %5) #0 {
  %7 = alloca ptr, align 8
  %8 = alloca i32, align 4
  %9 = alloca ptr, align 8
  %10 = alloca ptr, align 8
  %11 = alloca ptr, align 8
  %12 = alloca ptr, align 8
  store ptr %0, ptr %7, align 8
  store i32 %1, ptr %8, align 4
  store ptr %2, ptr %9, align 8
  store ptr %3, ptr %10, align 8
  store ptr %4, ptr %11, align 8
  store ptr %5, ptr %12, align 8
  br label %13

13:                                               ; preds = %6
  %14 = call zeroext i1 @running_in_daemon()
  br i1 %14, label %15, label %18

15:                                               ; preds = %13
  %16 = load ptr, ptr %9, align 8
  %17 = call i32 (ptr, ...) @error(ptr noundef @.str.71, ptr noundef %16)
  br label %28

18:                                               ; preds = %13
  br label %19

19:                                               ; preds = %18
  br label %20

20:                                               ; preds = %19
  %21 = call i32 @get_log_level()
  %22 = icmp sge i32 %21, 4
  br i1 %22, label %23, label %25

23:                                               ; preds = %20
  %24 = load ptr, ptr %9, align 8
  call void (i32, ptr, ...) @log_var(i32 noundef 4, ptr noundef @.str.71, ptr noundef %24)
  br label %25

25:                                               ; preds = %23, %20
  br label %26

26:                                               ; preds = %25
  br label %27

27:                                               ; preds = %26
  br label %28

28:                                               ; preds = %27, %15
  br label %29

29:                                               ; preds = %28
  ret i32 0
}