; Function Attrs: nounwind uwtable
define internal noundef i32 @_defunct_option(ptr readnone captures(none) %0, i32 %1, ptr noundef %2, ptr readnone captures(none) %3, ptr readnone captures(none) %4, ptr readnone captures(none) %5) #0 {
  %7 = tail call zeroext i1 @running_in_daemon() #12
  br i1 %7, label %8, label %10

8:                                                ; preds = %6
  %9 = tail call i32 (ptr, ...) @error(ptr noundef nonnull @.str.71, ptr noundef %2) #12
  br label %14

10:                                               ; preds = %6
  %11 = tail call i32 @get_log_level() #12
  %12 = icmp sgt i32 %11, 3
  br i1 %12, label %13, label %14

13:                                               ; preds = %10
  tail call void (i32, ptr, ...) @log_var(i32 noundef 4, ptr noundef nonnull @.str.71, ptr noundef %2) #12
  br label %14

14:                                               ; preds = %8, %13, %10
  ret i32 0
}